; Function Attrs: mustprogress uwtable
define hidden void @_ZN7datalog7context7cleanupEv(ptr nocapture noundef nonnull align 8 dereferenceable(3556) %this) local_unnamed_addr #3 align 2 {
entry:
  %m_last_status = getelementptr inbounds i8, ptr %this, i64 3516
  store i32 0, ptr %m_last_status, align 4
  %m_engine = getelementptr inbounds i8, ptr %this, i64 3504
  %0 = load ptr, ptr %m_engine, align 8
  %cmp.i.not = icmp eq ptr %0, null
  br i1 %cmp.i.not, label %if.end, label %if.then

if.then:                                          ; preds = %entry
  %vtable = load ptr, ptr %0, align 8
  %vfn = getelementptr inbounds i8, ptr %vtable, i64 184
  %1 = load ptr, ptr %vfn, align 8
  tail call void %1(ptr noundef nonnull align 8 dereferenceable(48) %0)
  br label %if.end

if.end:                                           ; preds = %if.then, %entry
  ret void
}